target datalayout = "e-m:e-p270:32:32-p271:32:32-p272:64:64-i64:64-i128:128-f80:128-n8:16:32:64-S128"
target triple = "x86_64-pc-linux-gnu"

%struct.Map_NodeStruct_t_ = type { ptr, ptr, i32, i32, i32, i32, [3 x i32], [3 x float], float, ptr, ptr, ptr, ptr, [2 x %struct.Map_TimeStruct_t_], [2 x %struct.Map_TimeStruct_t_], [2 x ptr], ptr, ptr, ptr }
%struct.Map_TimeStruct_t_ = type { float, float, float }

; Function Attrs: nounwind uwtable
define internal i32 @Map_MappingCountLevels_rec(ptr noundef %0) #0 {
  %2 = alloca i32, align 4
  %3 = alloca ptr, align 8
  %4 = alloca i32, align 4
  %5 = alloca i32, align 4
  %6 = alloca i32, align 4
  store ptr %0, ptr %3, align 8, !tbaa !3
  call void @llvm.lifetime.start.p0(i64 4, ptr %4) #4
  call void @llvm.lifetime.start.p0(i64 4, ptr %5) #4
  %7 = load ptr, ptr %3, align 8, !tbaa !3
  %8 = call i32 @Map_NodeIsAnd(ptr noundef %7)
  %9 = icmp ne i32 %8, 0
  br i1 %9, label %16, label %10

10:                                               ; preds = %1
  %11 = load ptr, ptr %3, align 8, !tbaa !3
  %12 = getelementptr inbounds nuw %struct.Map_NodeStruct_t_, ptr %11, i32 0, i32 5
  %13 = load i32, ptr %12, align 4
  %14 = and i32 %13, -2097121
  %15 = or i32 %14, 0
  store i32 %15, ptr %12, align 4
  store i32 0, ptr %2, align 4
  store i32 1, ptr %6, align 4
  br label %70

16:                                               ; preds = %1
  %17 = load ptr, ptr %3, align 8, !tbaa !3
  %18 = getelementptr inbounds nuw %struct.Map_NodeStruct_t_, ptr %17, i32 0, i32 5
  %19 = load i32, ptr %18, align 4
  %20 = and i32 %19, 1
  %21 = icmp ne i32 %20, 0
  br i1 %21, label %22, label %28

22:                                               ; preds = %16
  %23 = load ptr, ptr %3, align 8, !tbaa !3
  %24 = getelementptr inbounds nuw %struct.Map_NodeStruct_t_, ptr %23, i32 0, i32 5
  %25 = load i32, ptr %24, align 4
  %26 = lshr i32 %25, 5
  %27 = and i32 %26, 65535
  store i32 %27, ptr %2, align 4
  store i32 1, ptr %6, align 4
  br label %70

28:                                               ; preds = %16
  %29 = load ptr, ptr %3, align 8, !tbaa !3
  %30 = getelementptr inbounds nuw %struct.Map_NodeStruct_t_, ptr %29, i32 0, i32 5
  %31 = load i32, ptr %30, align 4
  %32 = and i32 %31, -2
  %33 = or i32 %32, 1
  store i32 %33, ptr %30, align 4
  %34 = load ptr, ptr %3, align 8, !tbaa !3
  %35 = getelementptr inbounds nuw %struct.Map_NodeStruct_t_, ptr %34, i32 0, i32 9
  %36 = load ptr, ptr %35, align 8, !tbaa !12
  %37 = ptrtoint ptr %36 to i64
  %38 = and i64 %37, -2
  %39 = inttoptr i64 %38 to ptr
  %40 = call i32 @Map_MappingCountLevels_rec(ptr noundef %39)
  store i32 %40, ptr %4, align 4, !tbaa !10
  %41 = load ptr, ptr %3, align 8, !tbaa !3
  %42 = getelementptr inbounds nuw %struct.Map_NodeStruct_t_, ptr %41, i32 0, i32 10
  %43 = load ptr, ptr %42, align 8, !tbaa !18
  %44 = ptrtoint ptr %43 to i64
  %45 = and i64 %44, -2
  %46 = inttoptr i64 %45 to ptr
  %47 = call i32 @Map_MappingCountLevels_rec(ptr noundef %46)
  store i32 %47, ptr %5, align 4, !tbaa !10
  %48 = load i32, ptr %4, align 4, !tbaa !10
  %49 = load i32, ptr %5, align 4, !tbaa !10
  %50 = icmp sgt i32 %48, %49
  br i1 %50, label %51, label %53

51:                                               ; preds = %28
  %52 = load i32, ptr %4, align 4, !tbaa !10
  br label %55

53:                                               ; preds = %28
  %54 = load i32, ptr %5, align 4, !tbaa !10
  br label %55

55:                                               ; preds = %53, %51
  %56 = phi i32 [ %52, %51 ], [ %54, %53 ]
  %57 = add nsw i32 1, %56
  %58 = load ptr, ptr %3, align 8, !tbaa !3
  %59 = getelementptr inbounds nuw %struct.Map_NodeStruct_t_, ptr %58, i32 0, i32 5
  %60 = load i32, ptr %59, align 4
  %61 = and i32 %57, 65535
  %62 = shl i32 %61, 5
  %63 = and i32 %60, -2097121
  %64 = or i32 %63, %62
  store i32 %64, ptr %59, align 4
  %65 = load ptr, ptr %3, align 8, !tbaa !3
  %66 = getelementptr inbounds nuw %struct.Map_NodeStruct_t_, ptr %65, i32 0, i32 5
  %67 = load i32, ptr %66, align 4
  %68 = lshr i32 %67, 5
  %69 = and i32 %68, 65535
  store i32 %69, ptr %2, align 4
  store i32 1, ptr %6, align 4
  br label %70

70:                                               ; preds = %55, %22, %10
  call void @llvm.lifetime.end.p0(i64 4, ptr %5) #4
  call void @llvm.lifetime.end.p0(i64 4, ptr %4) #4
  %71 = load i32, ptr %2, align 4
  ret i32 %71
}