; Function Attrs: nounwind uwtable
define internal fastcc range(i32 0, 65536) i32 @Map_MappingCountLevels_rec(ptr noundef %0) unnamed_addr #0 {
  %2 = tail call i32 @Map_NodeIsAnd(ptr noundef %0) #16
  %.not = icmp eq i32 %2, 0
  %3 = getelementptr inbounds nuw i8, ptr %0, i64 28
  %4 = load i32, ptr %3, align 4
  br i1 %.not, label %5, label %7

5:                                                ; preds = %1
  %6 = and i32 %4, -2097121
  store i32 %6, ptr %3, align 4
  br label %common.ret14

7:                                                ; preds = %1
  %8 = and i32 %4, 1
  %.not13 = icmp eq i32 %8, 0
  br i1 %.not13, label %12, label %9

9:                                                ; preds = %7
  %10 = lshr i32 %4, 5
  %11 = and i32 %10, 65535
  br label %common.ret14

common.ret14:                                     ; preds = %9, %5, %12
  %common.ret14.op = phi i32 [ %34, %12 ], [ %11, %9 ], [ 0, %5 ]
  ret i32 %common.ret14.op

12:                                               ; preds = %7
  %13 = or disjoint i32 %4, 1
  store i32 %13, ptr %3, align 4
  %14 = getelementptr inbounds nuw i8, ptr %0, i64 64
  %15 = load ptr, ptr %14, align 8, !tbaa !3
  %16 = ptrtoint ptr %15 to i64
  %17 = and i64 %16, -2
  %18 = inttoptr i64 %17 to ptr
  %19 = tail call fastcc i32 @Map_MappingCountLevels_rec(ptr noundef %18)
  %20 = getelementptr inbounds nuw i8, ptr %0, i64 72
  %21 = load ptr, ptr %20, align 8, !tbaa !14
  %22 = ptrtoint ptr %21 to i64
  %23 = and i64 %22, -2
  %24 = inttoptr i64 %23 to ptr
  %25 = tail call fastcc i32 @Map_MappingCountLevels_rec(ptr noundef %24)
  %26 = tail call i32 @llvm.umax.i32(i32 %19, i32 %25)
  %27 = load i32, ptr %3, align 4
  %28 = shl nuw nsw i32 %26, 5
  %29 = add nuw nsw i32 %28, 32
  %30 = and i32 %29, 2097120
  %31 = and i32 %27, -2097121
  %32 = or disjoint i32 %30, %31
  store i32 %32, ptr %3, align 4
  %33 = lshr exact i32 %29, 5
  %34 = and i32 %33, 65535
  br label %common.ret14
}